; Function Attrs: mustprogress uwtable
define internal fastcc noundef zeroext i1 @_ZN10duckdb_re2L18IsValidCaptureNameERKNS_11StringPieceE(ptr noundef nonnull readonly align 8 captures(none) dereferenceable(16) %0) unnamed_addr #9 personality ptr @__gxx_personality_v0 {
  %2 = alloca i32, align 4
  %3 = getelementptr inbounds nuw i8, ptr %0, i64 8
  %4 = load i64, ptr %3, align 8, !tbaa !97
  %5 = icmp eq i64 %4, 0
  br i1 %5, label %37, label %6

6:                                                ; preds = %1
  %7 = load atomic i8, ptr @_ZGVZN10duckdb_re2L18IsValidCaptureNameERKNS_11StringPieceEE2cc acquire, align 8
  %8 = icmp eq i8 %7, 0
  br i1 %8, label %9, label %15, !prof !208

9:                                                ; preds = %6
  %10 = tail call i32 @__cxa_guard_acquire(ptr nonnull @_ZGVZN10duckdb_re2L18IsValidCaptureNameERKNS_11StringPieceEE2cc) #32
  %.not = icmp eq i32 %10, 0
  br i1 %.not, label %15, label %11

11:                                               ; preds = %9
  %12 = invoke fastcc noundef ptr @"_ZZN10duckdb_re2L18IsValidCaptureNameERKNS_11StringPieceEENK3$_0clEv"()
          to label %13 unwind label %29

13:                                               ; preds = %11
  store ptr %12, ptr @_ZZN10duckdb_re2L18IsValidCaptureNameERKNS_11StringPieceEE2cc, align 8, !tbaa !209
  %14 = tail call ptr @llvm.invariant.start.p0(i64 8, ptr nonnull @_ZZN10duckdb_re2L18IsValidCaptureNameERKNS_11StringPieceEE2cc)
  tail call void @__cxa_guard_release(ptr nonnull @_ZGVZN10duckdb_re2L18IsValidCaptureNameERKNS_11StringPieceEE2cc) #32
  br label %15

15:                                               ; preds = %13, %9, %6
  %.sroa.0.0.copyload = load ptr, ptr %0, align 8, !tbaa !17
  %.sroa.7.0.copyload = load i64, ptr %3, align 8, !tbaa !18
  call void @llvm.lifetime.start.p0(i64 4, ptr nonnull %2) #32
  br label %16

16:                                               ; preds = %31, %15
  %.sroa.7.0 = phi i64 [ %.sroa.7.0.copyload, %15 ], [ %33, %31 ]
  %.sroa.0.0 = phi ptr [ %.sroa.0.0.copyload, %15 ], [ %34, %31 ]
  %17 = icmp eq i64 %.sroa.7.0, 0
  br i1 %17, label %_ZN10duckdb_re2L17StringPieceToRuneEPiPNS_11StringPieceEPNS_12RegexpStatusE.exit.thread, label %18

18:                                               ; preds = %16
  %.sroa.speculated.i = call i64 @llvm.umin.i64(i64 %.sroa.7.0, i64 4)
  %19 = trunc nuw nsw i64 %.sroa.speculated.i to i32
  %20 = call noundef i32 @_ZN10duckdb_re28fullruneEPKci(ptr noundef %.sroa.0.0, i32 noundef %19)
  %.not.i = icmp eq i32 %20, 0
  br i1 %.not.i, label %_ZN10duckdb_re2L17StringPieceToRuneEPiPNS_11StringPieceEPNS_12RegexpStatusE.exit.thread, label %21

21:                                               ; preds = %18
  %22 = call noundef i32 @_ZN10duckdb_re210chartoruneEPiPKc(ptr noundef nonnull %2, ptr noundef %.sroa.0.0)
  %23 = load i32, ptr %2, align 4, !tbaa !3
  %24 = icmp sgt i32 %23, 1114111
  br i1 %24, label %_ZN10duckdb_re2L17StringPieceToRuneEPiPNS_11StringPieceEPNS_12RegexpStatusE.exit.thread, label %25

25:                                               ; preds = %21
  %26 = icmp eq i32 %22, 1
  %27 = icmp eq i32 %23, 65533
  %or.cond.i = and i1 %26, %27
  %28 = icmp slt i32 %22, 0
  %or.cond = or i1 %28, %or.cond.i
  br i1 %or.cond, label %_ZN10duckdb_re2L17StringPieceToRuneEPiPNS_11StringPieceEPNS_12RegexpStatusE.exit.thread, label %31

29:                                               ; preds = %11
  %30 = landingpad { ptr, i32 }
          cleanup
  tail call void @__cxa_guard_abort(ptr nonnull @_ZGVZN10duckdb_re2L18IsValidCaptureNameERKNS_11StringPieceEE2cc) #32
  resume { ptr, i32 } %30

31:                                               ; preds = %25
  %32 = zext nneg i32 %22 to i64
  %33 = sub i64 %.sroa.7.0, %32
  %34 = getelementptr inbounds nuw i8, ptr %.sroa.0.0, i64 %32
  %35 = load ptr, ptr @_ZZN10duckdb_re2L18IsValidCaptureNameERKNS_11StringPieceEE2cc, align 8, !tbaa !209
  %36 = call noundef zeroext i1 @_ZNK10duckdb_re29CharClass8ContainsEi(ptr noundef nonnull align 8 dereferenceable(20) %35, i32 noundef %23)
  br i1 %36, label %16, label %_ZN10duckdb_re2L17StringPieceToRuneEPiPNS_11StringPieceEPNS_12RegexpStatusE.exit.thread, !llvm.loop !211

_ZN10duckdb_re2L17StringPieceToRuneEPiPNS_11StringPieceEPNS_12RegexpStatusE.exit.thread: ; preds = %18, %25, %16, %31, %21
  call void @llvm.lifetime.end.p0(i64 4, ptr nonnull %2) #32
  br label %37

37:                                               ; preds = %1, %_ZN10duckdb_re2L17StringPieceToRuneEPiPNS_11StringPieceEPNS_12RegexpStatusE.exit.thread
  %.0 = phi i1 [ %17, %_ZN10duckdb_re2L17StringPieceToRuneEPiPNS_11StringPieceEPNS_12RegexpStatusE.exit.thread ], [ false, %1 ]
  ret i1 %.0
}